target datalayout = "e-m:e-p270:32:32-p271:32:32-p272:64:64-i64:64-i128:128-f80:128-n8:16:32:64-S128"
target triple = "x86_64-pc-linux-gnu"

%class.QString = type { %struct.QArrayDataPointer }
%struct.QArrayDataPointer = type { ptr, ptr, i64 }
%class.TrafficTab = type <{ %class.DetachableTabWidget, %class.QList, %class.QMap, ptr, ptr, ptr, ptr, i8, i8, [6 x i8] }>
%class.DetachableTabWidget = type { %class.QTabWidget, %class.QString }
%class.QTabWidget = type { %class.QWidget }
%class.QWidget = type { %class.QObject, %class.QPaintDevice.base, ptr }
%class.QObject = type { ptr, %class.QScopedPointer }
%class.QScopedPointer = type { ptr }
%class.QPaintDevice.base = type <{ ptr, i16 }>
%class.QList = type { %struct.QArrayDataPointer.0 }
%struct.QArrayDataPointer.0 = type { ptr, ptr, i64 }
%class.QMap = type { %"class.QtPrivate::QExplicitlySharedDataPointerV2" }
%"class.QtPrivate::QExplicitlySharedDataPointerV2" = type { ptr }
%class.QBasicAtomicInteger = type { %"struct.std::atomic" }
%"struct.std::atomic" = type { %"struct.std::__atomic_base" }
%"struct.std::__atomic_base" = type { i32 }
%struct.QArrayData = type { %class.QBasicAtomicInteger, %class.QFlags, i64 }
%class.QFlags = type { i32 }

; Function Attrs: mustprogress nounwind null_pointer_is_valid sspstrong uwtable
define linkonce_odr noundef i32 @_ZNSt13__atomic_baseIiEmmEv(ptr noundef align 4 dereferenceable_or_null(4) %0) #0 comdat align 2 {
  %2 = alloca ptr, align 8
  %3 = alloca i32, align 4
  %4 = alloca i32, align 4
  store ptr %0, ptr %2, align 8
  %5 = load ptr, ptr %2, align 8
  %6 = getelementptr inbounds nuw %"struct.std::__atomic_base", ptr %5, i32 0, i32 0
  store i32 1, ptr %3, align 4
  %7 = load i32, ptr %3, align 4
  %8 = atomicrmw sub ptr %6, i32 %7 seq_cst, align 4
  %9 = sub i32 %8, %7
  store i32 %9, ptr %4, align 4
  %10 = load i32, ptr %4, align 4
  ret i32 %10
}

; Function Attrs: inlinehint mustprogress nounwind null_pointer_is_valid sspstrong uwtable
define linkonce_odr noundef zeroext i1 @_ZN10QAtomicOpsIiE5derefIiEEbRSt6atomicIT_E(ptr noundef align 4 dereferenceable(4) %0) #1 comdat align 2 {
  %2 = alloca ptr, align 8
  store ptr %0, ptr %2, align 8
  %3 = load ptr, ptr %2, align 8
  %4 = call noundef i32 @_ZNSt13__atomic_baseIiEmmEv(ptr noundef align 4 dereferenceable_or_null(4) %3) #16
  %5 = icmp ne i32 %4, 0
  ret i1 %5
}

; Function Attrs: mustprogress nounwind null_pointer_is_valid sspstrong uwtable
define linkonce_odr noundef zeroext i1 @_ZN19QBasicAtomicIntegerIiE5derefEv(ptr noundef align 4 dereferenceable_or_null(4) %0) #0 comdat align 2 {
  %2 = alloca ptr, align 8
  store ptr %0, ptr %2, align 8
  %3 = load ptr, ptr %2, align 8
  %4 = getelementptr inbounds nuw %class.QBasicAtomicInteger, ptr %3, i32 0, i32 0
  %5 = call noundef zeroext i1 @_ZN10QAtomicOpsIiE5derefIiEEbRSt6atomicIT_E(ptr noundef align 4 dereferenceable(4) %4) #16
  ret i1 %5
}

; Function Attrs: mustprogress nounwind null_pointer_is_valid sspstrong uwtable
define linkonce_odr noundef zeroext i1 @_ZN10QArrayData5derefEv(ptr noundef align 8 dereferenceable_or_null(16) %0) #0 comdat align 2 {
  %2 = alloca ptr, align 8
  store ptr %0, ptr %2, align 8
  %3 = load ptr, ptr %2, align 8
  %4 = getelementptr inbounds nuw %struct.QArrayData, ptr %3, i32 0, i32 0
  %5 = call noundef zeroext i1 @_ZN19QBasicAtomicIntegerIiE5derefEv(ptr noundef align 4 dereferenceable_or_null(4) %4) #16
  ret i1 %5
}

; Function Attrs: mustprogress nounwind null_pointer_is_valid sspstrong uwtable
define linkonce_odr void @_ZN15QTypedArrayDataIDsE10deallocateEP10QArrayData(ptr noundef %0) #0 comdat align 2 {
  %2 = alloca ptr, align 8
  store ptr %0, ptr %2, align 8
  %3 = load ptr, ptr %2, align 8
  call void @_ZN10QArrayData10deallocateEPS_xx(ptr noundef %3, i64 noundef 2, i64 noundef 8) #16
  ret void
}

; Function Attrs: mustprogress nounwind null_pointer_is_valid sspstrong uwtable
define linkonce_odr void @_ZN9QtPrivate12QPodArrayOpsIDsE10destroyAllEv(ptr noundef align 8 dereferenceable_or_null(24) %0) #0 comdat align 2 {
  %2 = alloca ptr, align 8
  store ptr %0, ptr %2, align 8
  ret void
}

; Function Attrs: mustprogress nounwind null_pointer_is_valid sspstrong uwtable
define linkonce_odr noundef ptr @_ZN17QArrayDataPointerIDsEptEv(ptr noundef align 8 dereferenceable_or_null(24) %0) #0 comdat align 2 {
  %2 = alloca ptr, align 8
  store ptr %0, ptr %2, align 8
  %3 = load ptr, ptr %2, align 8
  ret ptr %3
}

; Function Attrs: mustprogress nounwind null_pointer_is_valid sspstrong uwtable
define linkonce_odr noundef zeroext i1 @_ZN17QArrayDataPointerIDsE5derefEv(ptr noundef align 8 dereferenceable_or_null(24) %0) #0 comdat align 2 {
  %2 = alloca ptr, align 8
  store ptr %0, ptr %2, align 8
  %3 = load ptr, ptr %2, align 8
  %4 = getelementptr inbounds nuw %struct.QArrayDataPointer, ptr %3, i32 0, i32 0
  %5 = load ptr, ptr %4, align 8
  %6 = icmp ne ptr %5, null
  br i1 %6, label %7, label %11

7:                                                ; preds = %1
  %8 = getelementptr inbounds nuw %struct.QArrayDataPointer, ptr %3, i32 0, i32 0
  %9 = load ptr, ptr %8, align 8
  %10 = call noundef zeroext i1 @_ZN10QArrayData5derefEv(ptr noundef align 8 dereferenceable_or_null(16) %9) #16
  br label %11

11:                                               ; preds = %7, %1
  %12 = phi i1 [ true, %1 ], [ %10, %7 ]
  ret i1 %12
}

; Function Attrs: mustprogress nounwind null_pointer_is_valid sspstrong uwtable
define linkonce_odr void @_ZN17QArrayDataPointerIDsED2Ev(ptr noundef align 8 dereferenceable_or_null(24) %0) unnamed_addr #0 comdat align 2 {
  %2 = alloca ptr, align 8
  store ptr %0, ptr %2, align 8
  %3 = load ptr, ptr %2, align 8
  %4 = call noundef zeroext i1 @_ZN17QArrayDataPointerIDsE5derefEv(ptr noundef align 8 dereferenceable_or_null(24) %3) #16
  br i1 %4, label %9, label %5

5:                                                ; preds = %1
  %6 = call noundef ptr @_ZN17QArrayDataPointerIDsEptEv(ptr noundef align 8 dereferenceable_or_null(24) %3) #16
  call void @_ZN9QtPrivate12QPodArrayOpsIDsE10destroyAllEv(ptr noundef align 8 dereferenceable_or_null(24) %6) #16
  %7 = getelementptr inbounds nuw %struct.QArrayDataPointer, ptr %3, i32 0, i32 0
  %8 = load ptr, ptr %7, align 8
  call void @_ZN15QTypedArrayDataIDsE10deallocateEP10QArrayData(ptr noundef %8) #16
  br label %9

9:                                                ; preds = %5, %1
  ret void
}

; Function Attrs: mustprogress nounwind null_pointer_is_valid sspstrong uwtable
define linkonce_odr void @_ZN17QArrayDataPointerIDsEC2Ev(ptr noundef align 8 dereferenceable_or_null(24) %0) unnamed_addr #0 comdat align 2 {
  %2 = alloca ptr, align 8
  store ptr %0, ptr %2, align 8
  %3 = load ptr, ptr %2, align 8
  %4 = getelementptr inbounds nuw %struct.QArrayDataPointer, ptr %3, i32 0, i32 0
  store ptr null, ptr %4, align 8
  %5 = getelementptr inbounds nuw %struct.QArrayDataPointer, ptr %3, i32 0, i32 1
  store ptr null, ptr %5, align 8
  %6 = getelementptr inbounds nuw %struct.QArrayDataPointer, ptr %3, i32 0, i32 2
  store i64 0, ptr %6, align 8
  ret void
}

; Function Attrs: mustprogress nounwind null_pointer_is_valid sspstrong uwtable
define linkonce_odr void @_ZN9QtPrivate30QExplicitlySharedDataPointerV2I8QMapDataISt3mapIiiSt4lessIiESaISt4pairIKiiEEEEEC2Ev(ptr noundef align 8 dereferenceable_or_null(8) %0) unnamed_addr #0 comdat align 2 {
  %2 = alloca ptr, align 8
  store ptr %0, ptr %2, align 8
  %3 = load ptr, ptr %2, align 8
  %4 = getelementptr inbounds nuw %"class.QtPrivate::QExplicitlySharedDataPointerV2", ptr %3, i32 0, i32 0
  store ptr null, ptr %4, align 8
  ret void
}

; Function Attrs: mustprogress nounwind null_pointer_is_valid sspstrong uwtable
define linkonce_odr void @_ZN17QArrayDataPointerIiEC2Ev(ptr noundef align 8 dereferenceable_or_null(24) %0) unnamed_addr #0 comdat align 2 {
  %2 = alloca ptr, align 8
  store ptr %0, ptr %2, align 8
  %3 = load ptr, ptr %2, align 8
  %4 = getelementptr inbounds nuw %struct.QArrayDataPointer.0, ptr %3, i32 0, i32 0
  store ptr null, ptr %4, align 8
  %5 = getelementptr inbounds nuw %struct.QArrayDataPointer.0, ptr %3, i32 0, i32 1
  store ptr null, ptr %5, align 8
  %6 = getelementptr inbounds nuw %struct.QArrayDataPointer.0, ptr %3, i32 0, i32 2
  store i64 0, ptr %6, align 8
  ret void
}

; Function Attrs: inlinehint mustprogress nounwind null_pointer_is_valid sspstrong uwtable
define linkonce_odr void @_ZN7QStringD2Ev(ptr noundef align 8 dereferenceable_or_null(24) %0) unnamed_addr #1 comdat align 2 {
  %2 = alloca ptr, align 8
  store ptr %0, ptr %2, align 8
  %3 = load ptr, ptr %2, align 8
  %4 = getelementptr inbounds nuw %class.QString, ptr %3, i32 0, i32 0
  call void @_ZN17QArrayDataPointerIDsED2Ev(ptr noundef align 8 dereferenceable_or_null(24) %4) #16
  ret void
}

; Function Attrs: inlinehint mustprogress nounwind null_pointer_is_valid sspstrong uwtable
define linkonce_odr void @_ZN7QStringC2Ev(ptr noundef align 8 dereferenceable_or_null(24) %0) unnamed_addr #1 comdat align 2 {
  %2 = alloca ptr, align 8
  store ptr %0, ptr %2, align 8
  %3 = load ptr, ptr %2, align 8
  %4 = getelementptr inbounds nuw %class.QString, ptr %3, i32 0, i32 0
  call void @_ZN17QArrayDataPointerIDsEC2Ev(ptr noundef align 8 dereferenceable_or_null(24) %4) #16
  ret void
}

; Function Attrs: mustprogress nounwind null_pointer_is_valid sspstrong uwtable
define linkonce_odr void @_ZN4QMapIiiEC2Ev(ptr noundef align 8 dereferenceable_or_null(8) %0) unnamed_addr #0 comdat align 2 {
  %2 = alloca ptr, align 8
  store ptr %0, ptr %2, align 8
  %3 = load ptr, ptr %2, align 8
  %4 = getelementptr inbounds nuw %class.QMap, ptr %3, i32 0, i32 0
  call void @_ZN9QtPrivate30QExplicitlySharedDataPointerV2I8QMapDataISt3mapIiiSt4lessIiESaISt4pairIKiiEEEEEC2Ev(ptr noundef align 8 dereferenceable_or_null(8) %4) #16
  ret void
}

; Function Attrs: mustprogress nounwind null_pointer_is_valid sspstrong uwtable
define linkonce_odr void @_ZN5QListIiEC2Ev(ptr noundef align 8 dereferenceable_or_null(24) %0) unnamed_addr #0 comdat align 2 {
  %2 = alloca ptr, align 8
  store ptr %0, ptr %2, align 8
  %3 = load ptr, ptr %2, align 8
  %4 = getelementptr inbounds nuw %class.QList, ptr %3, i32 0, i32 0
  call void @_ZN17QArrayDataPointerIiEC2Ev(ptr noundef align 8 dereferenceable_or_null(24) %4) #16
  ret void
}

; Function Attrs: mustprogress null_pointer_is_valid sspstrong uwtable
define void @_ZN10TrafficTabC2EP7QWidget(ptr noundef align 8 dereferenceable_or_null(130) %0, ptr noundef %1) unnamed_addr #2 align 2 personality ptr @__gxx_personality_v0 {
  %3 = alloca ptr, align 8
  %4 = alloca ptr, align 8
  %5 = alloca %class.QString, align 8
  %6 = alloca ptr, align 8
  %7 = alloca i32, align 4
  store ptr %0, ptr %3, align 8
  store ptr %1, ptr %4, align 8
  %8 = load ptr, ptr %3, align 8
  %9 = load ptr, ptr %4, align 8
  call void @_ZN19DetachableTabWidgetC2EP7QWidget(ptr noundef align 8 dereferenceable_or_null(64) %8, ptr noundef %9)
  store ptr getelementptr inbounds inrange(-16, 464) ({ [60 x ptr], [10 x ptr] }, ptr @_ZTV10TrafficTab, i32 0, i32 0, i32 2), ptr %8, align 8
  %10 = getelementptr inbounds i8, ptr %8, i64 16
  store ptr getelementptr inbounds inrange(-16, 64) ({ [60 x ptr], [10 x ptr] }, ptr @_ZTV10TrafficTab, i32 0, i32 1, i32 2), ptr %10, align 8
  %11 = getelementptr inbounds nuw %class.TrafficTab, ptr %8, i32 0, i32 1
  call void @_ZN5QListIiEC2Ev(ptr noundef align 8 dereferenceable_or_null(24) %11) #16
  %12 = getelementptr inbounds nuw %class.TrafficTab, ptr %8, i32 0, i32 2
  call void @_ZN4QMapIiiEC2Ev(ptr noundef align 8 dereferenceable_or_null(8) %12) #16
  %13 = getelementptr inbounds nuw %class.TrafficTab, ptr %8, i32 0, i32 3
  store ptr null, ptr %13, align 8
  %14 = getelementptr inbounds nuw %class.TrafficTab, ptr %8, i32 0, i32 4
  store ptr null, ptr %14, align 8
  %15 = getelementptr inbounds nuw %class.TrafficTab, ptr %8, i32 0, i32 7
  store i8 0, ptr %15, align 8
  %16 = getelementptr inbounds nuw %class.TrafficTab, ptr %8, i32 0, i32 8
  store i8 0, ptr %16, align 1
  call void @_ZN7QStringC2Ev(ptr noundef align 8 dereferenceable_or_null(24) %5) #16
  invoke void @_ZN19DetachableTabWidget14setTabBasenameE7QString(ptr noundef align 8 dereferenceable_or_null(64) %8, ptr noundef %5)
          to label %17 unwind label %18

17:                                               ; preds = %2
  call void @_ZN7QStringD2Ev(ptr noundef align 8 dereferenceable_or_null(24) %5) #16
  ret void

18:                                               ; preds = %2
  %19 = landingpad { ptr, i32 }
          cleanup
  %20 = extractvalue { ptr, i32 } %19, 0
  store ptr %20, ptr %6, align 8
  %21 = extractvalue { ptr, i32 } %19, 1
  store i32 %21, ptr %7, align 4
  call void @_ZN7QStringD2Ev(ptr noundef align 8 dereferenceable_or_null(24) %5) #16
  call void @_ZN4QMapIiiED2Ev(ptr noundef align 8 dereferenceable_or_null(8) %12) #16
  call void @_ZN5QListIiED2Ev(ptr noundef align 8 dereferenceable_or_null(24) %11) #16
  call void @_ZN19DetachableTabWidgetD2Ev(ptr noundef align 8 dereferenceable_or_null(64) %8) #16
  br label %22

22:                                               ; preds = %18
  %23 = load ptr, ptr %6, align 8
  %24 = load i32, ptr %7, align 4
  %25 = insertvalue { ptr, i32 } poison, ptr %23, 0
  %26 = insertvalue { ptr, i32 } %25, i32 %24, 1
  resume { ptr, i32 } %26
}