; Function Attrs: mustprogress null_pointer_is_valid sspstrong uwtable
define void @_ZN10TrafficTabC2EP7QWidget(ptr noundef align 8 dereferenceable_or_null(130) %0, ptr noundef %1) unnamed_addr #3 align 2 personality ptr @__gxx_personality_v0 {
  %3 = alloca %class.QString, align 8
  tail call void @_ZN19DetachableTabWidgetC2EP7QWidget(ptr noundef align 8 dereferenceable_or_null(64) %0, ptr noundef %1)
  store ptr getelementptr inbounds nuw inrange(-16, 464) (i8, ptr @_ZTV10TrafficTab, i64 16), ptr %0, align 8
  %4 = getelementptr inbounds nuw i8, ptr %0, i64 16
  store ptr getelementptr inbounds nuw inrange(-16, 64) (i8, ptr @_ZTV10TrafficTab, i64 496), ptr %4, align 8
  %5 = getelementptr inbounds nuw i8, ptr %0, i64 64
  %6 = getelementptr inbounds nuw i8, ptr %0, i64 128
  store i8 0, ptr %6, align 8
  %7 = getelementptr inbounds nuw i8, ptr %0, i64 129
  store i8 0, ptr %7, align 1
  tail call void @llvm.memset.p0.i64(ptr noundef nonnull align 8 dereferenceable(48) %5, i8 0, i64 48, i1 false)
  call void @llvm.memset.p0.i64(ptr noundef nonnull align 8 dereferenceable(24) dereferenceable_or_null(24) %3, i8 0, i64 24, i1 false)
  invoke void @_ZN19DetachableTabWidget14setTabBasenameE7QString(ptr noundef align 8 dereferenceable_or_null(64) %0, ptr noundef nonnull %3)
          to label %8 unwind label %13

8:                                                ; preds = %2
  %9 = load ptr, ptr %3, align 8
  %.not.i.i.i = icmp eq ptr %9, null
  br i1 %.not.i.i.i, label %_ZN7QStringD2Ev.exit, label %_ZN17QArrayDataPointerIDsE5derefEv.exit.i.i

_ZN17QArrayDataPointerIDsE5derefEv.exit.i.i:      ; preds = %8
  %10 = atomicrmw sub ptr %9, i32 1 seq_cst, align 4
  %.not.i.i = icmp eq i32 %10, 1
  br i1 %.not.i.i, label %11, label %_ZN7QStringD2Ev.exit

11:                                               ; preds = %_ZN17QArrayDataPointerIDsE5derefEv.exit.i.i
  %12 = load ptr, ptr %3, align 8
  call void @_ZN10QArrayData10deallocateEPS_xx(ptr noundef %12, i64 noundef 2, i64 noundef 8) #25
  br label %_ZN7QStringD2Ev.exit

_ZN7QStringD2Ev.exit:                             ; preds = %8, %_ZN17QArrayDataPointerIDsE5derefEv.exit.i.i, %11
  ret void

13:                                               ; preds = %2
  %14 = landingpad { ptr, i32 }
          cleanup
  %15 = load ptr, ptr %3, align 8
  %.not.i.i.i3 = icmp eq ptr %15, null
  br i1 %.not.i.i.i3, label %_ZN7QStringD2Ev.exit6, label %_ZN17QArrayDataPointerIDsE5derefEv.exit.i.i4

_ZN17QArrayDataPointerIDsE5derefEv.exit.i.i4:     ; preds = %13
  %16 = atomicrmw sub ptr %15, i32 1 seq_cst, align 4
  %.not.i.i5 = icmp eq i32 %16, 1
  br i1 %.not.i.i5, label %17, label %_ZN7QStringD2Ev.exit6

17:                                               ; preds = %_ZN17QArrayDataPointerIDsE5derefEv.exit.i.i4
  %18 = load ptr, ptr %3, align 8
  call void @_ZN10QArrayData10deallocateEPS_xx(ptr noundef %18, i64 noundef 2, i64 noundef 8) #25
  br label %_ZN7QStringD2Ev.exit6

_ZN7QStringD2Ev.exit6:                            ; preds = %13, %_ZN17QArrayDataPointerIDsE5derefEv.exit.i.i4, %17
  %19 = getelementptr inbounds nuw i8, ptr %0, i64 88
  call void @_ZN4QMapIiiED2Ev(ptr noundef nonnull align 8 dereferenceable_or_null(8) %19) #25
  call void @_ZN5QListIiED2Ev(ptr noundef nonnull align 8 dereferenceable_or_null(24) %5) #25
  call void @_ZN19DetachableTabWidgetD2Ev(ptr noundef align 8 dereferenceable_or_null(64) %0) #25
  resume { ptr, i32 } %14
}